target datalayout = "e-m:e-p270:32:32-p271:32:32-p272:64:64-i64:64-i128:128-f80:128-n8:16:32:64-S128"
target triple = "x86_64-pc-linux-gnu"

; Function Attrs: mustprogress uwtable
define void @_ZN5faiss20fvec_renorm_L2_noompEmmPf(i64 noundef %0, i64 noundef %1, ptr noalias noundef %2) #6 {
  %4 = alloca i64, align 8
  %5 = alloca i64, align 8
  %6 = alloca ptr, align 8
  %7 = alloca i64, align 8
  %8 = alloca ptr, align 8
  %9 = alloca float, align 4
  %10 = alloca i64, align 8
  %11 = alloca float, align 4
  store i64 %0, ptr %4, align 8
  store i64 %1, ptr %5, align 8
  store ptr %2, ptr %6, align 8
  store i64 0, ptr %7, align 8
  br label %12

12:                                               ; preds = %49, %3
  %13 = load i64, ptr %7, align 8
  %14 = load i64, ptr %5, align 8
  %15 = icmp ult i64 %13, %14
  br i1 %15, label %16, label %52

16:                                               ; preds = %12
  %17 = load ptr, ptr %6, align 8
  %18 = load i64, ptr %7, align 8
  %19 = load i64, ptr %4, align 8
  %20 = mul i64 %18, %19
  %21 = getelementptr inbounds float, ptr %17, i64 %20
  store ptr %21, ptr %8, align 8
  %22 = load ptr, ptr %8, align 8
  %23 = load i64, ptr %4, align 8
  %24 = call noundef float @_ZN5faiss15fvec_norm_L2sqrEPKfm(ptr noundef %22, i64 noundef %23)
  store float %24, ptr %9, align 4
  %25 = load float, ptr %9, align 4
  %26 = fcmp ogt float %25, 0.000000e+00
  br i1 %26, label %27, label %48

27:                                               ; preds = %16
  %28 = load float, ptr %9, align 4
  %29 = call float @sqrtf(float noundef %28) #2
  %30 = fpext float %29 to double
  %31 = fdiv double 1.000000e+00, %30
  %32 = fptrunc double %31 to float
  store float %32, ptr %11, align 4
  store i64 0, ptr %10, align 8
  br label %33

33:                                               ; preds = %44, %27
  %34 = load i64, ptr %10, align 8
  %35 = load i64, ptr %4, align 8
  %36 = icmp ult i64 %34, %35
  br i1 %36, label %37, label %47

37:                                               ; preds = %33
  %38 = load float, ptr %11, align 4
  %39 = load ptr, ptr %8, align 8
  %40 = load i64, ptr %10, align 8
  %41 = getelementptr inbounds float, ptr %39, i64 %40
  %42 = load float, ptr %41, align 4
  %43 = fmul float %42, %38
  store float %43, ptr %41, align 4
  br label %44

44:                                               ; preds = %37
  %45 = load i64, ptr %10, align 8
  %46 = add i64 %45, 1
  store i64 %46, ptr %10, align 8
  br label %33, !llvm.loop !7

47:                                               ; preds = %33
  br label %48

48:                                               ; preds = %47, %16
  br label %49

49:                                               ; preds = %48
  %50 = load i64, ptr %7, align 8
  %51 = add nsw i64 %50, 1
  store i64 %51, ptr %7, align 8
  br label %12, !llvm.loop !9

52:                                               ; preds = %12
  ret void
}