; Function Attrs: mustprogress uwtable
define void @_ZN5faiss20fvec_renorm_L2_noompEmmPf(i64 noundef %0, i64 noundef %1, ptr noalias noundef %2) local_unnamed_addr #6 {
  %.not = icmp eq i64 %1, 0
  br i1 %.not, label %._crit_edge, label %.lr.ph19

.lr.ph19:                                         ; preds = %3
  %.not20 = icmp eq i64 %0, 0
  br i1 %.not20, label %.lr.ph19.split, label %.lr.ph19.split.us

.lr.ph19.split.us:                                ; preds = %.lr.ph19, %..loopexit_crit_edge.us
  %.018.us = phi i64 [ %10, %..loopexit_crit_edge.us ], [ 0, %.lr.ph19 ]
  %4 = mul i64 %.018.us, %0
  %5 = getelementptr inbounds float, ptr %2, i64 %4
  %6 = tail call noundef float @_ZN5faiss15fvec_norm_L2sqrEPKfm(ptr noundef %5, i64 noundef %0)
  %7 = fcmp ogt float %6, 0.000000e+00
  br i1 %7, label %.lr.ph.us, label %..loopexit_crit_edge.us

.lr.ph.us:                                        ; preds = %.lr.ph19.split.us
  %8 = tail call float @sqrtf(float noundef %6) #2
  %9 = fdiv float 1.000000e+00, %8
  br label %11

..loopexit_crit_edge.us:                          ; preds = %11, %.lr.ph19.split.us
  %10 = add nuw i64 %.018.us, 1
  %exitcond22.not = icmp eq i64 %10, %1
  br i1 %exitcond22.not, label %._crit_edge, label %.lr.ph19.split.us, !llvm.loop !7

11:                                               ; preds = %.lr.ph.us, %11
  %.01517.us = phi i64 [ 0, %.lr.ph.us ], [ %15, %11 ]
  %12 = getelementptr inbounds float, ptr %5, i64 %.01517.us
  %13 = load float, ptr %12, align 4
  %14 = fmul float %9, %13
  store float %14, ptr %12, align 4
  %15 = add nuw i64 %.01517.us, 1
  %exitcond.not = icmp eq i64 %15, %0
  br i1 %exitcond.not, label %..loopexit_crit_edge.us, label %11, !llvm.loop !9

.lr.ph19.split:                                   ; preds = %.lr.ph19, %19
  %.018 = phi i64 [ %20, %19 ], [ 0, %.lr.ph19 ]
  %16 = tail call noundef float @_ZN5faiss15fvec_norm_L2sqrEPKfm(ptr noundef %2, i64 noundef 0)
  %17 = fcmp ogt float %16, 0.000000e+00
  br i1 %17, label %.loopexit, label %19

.loopexit:                                        ; preds = %.lr.ph19.split
  %18 = tail call float @sqrtf(float noundef %16) #2
  br label %19

19:                                               ; preds = %.loopexit, %.lr.ph19.split
  %20 = add nuw i64 %.018, 1
  %exitcond23.not = icmp eq i64 %20, %1
  br i1 %exitcond23.not, label %._crit_edge, label %.lr.ph19.split, !llvm.loop !7

._crit_edge:                                      ; preds = %..loopexit_crit_edge.us, %19, %3
  ret void
}